target datalayout = "e-m:e-p270:32:32-p271:32:32-p272:64:64-i64:64-i128:128-f80:128-n8:16:32:64-S128"
target triple = "x86_64-unknown-linux-gnu"

%"struct.node::AssertionInfo" = type { ptr, ptr, ptr }
%"class.node::quic::(anonymous namespace)::RandomCIDFactory" = type { %"class.node::quic::CID::Factory", i32, [4096 x i8], %"class.node::MutexBase" }
%"class.node::quic::CID::Factory" = type { ptr }
%"class.node::MutexBase" = type { %union.pthread_mutex_t }
%union.pthread_mutex_t = type { %struct.__pthread_mutex_s }
%struct.__pthread_mutex_s = type { i32, i32, i32, i32, i32, i16, i16, %struct.__pthread_internal_list }
%struct.__pthread_internal_list = type { ptr, ptr }

@_ZTVN4node4quic3CID7FactoryE = linkonce_odr dso_local unnamed_addr constant { [6 x ptr] } { [6 x ptr] [ptr null, ptr null, ptr @_ZN4node4quic3CID7FactoryD2Ev, ptr @_ZN4node4quic3CID7FactoryD0Ev, ptr @__cxa_pure_virtual, ptr @__cxa_pure_virtual] }, comdat, align 8
@_ZZN4node9MutexBaseINS_16LibuvMutexTraitsEEC1EvE4args = linkonce_odr dso_local constant %"struct.node::AssertionInfo" { ptr @.str.9, ptr @.str.10, ptr @.str.11 }, comdat, align 8

; Function Attrs: mustprogress nounwind uwtable
define linkonce_odr dso_local noundef i32 @_ZN4node16LibuvMutexTraits10mutex_initEP15pthread_mutex_t(ptr noundef %mutex) #4 comdat align 2 {
entry:
  %mutex.addr = alloca ptr, align 8
  store ptr %mutex, ptr %mutex.addr, align 8
  %0 = load ptr, ptr %mutex.addr, align 8
  %call = call i32 @uv_mutex_init(ptr noundef %0)
  ret i32 %call
}

; Function Attrs: mustprogress nounwind uwtable
define linkonce_odr dso_local void @_ZN4node9MutexBaseINS_16LibuvMutexTraitsEEC2Ev(ptr noundef nonnull align 8 dereferenceable(40) %this) unnamed_addr #4 comdat align 2 {
entry:
  %this.addr = alloca ptr, align 8
  store ptr %this, ptr %this.addr, align 8
  %this1 = load ptr, ptr %this.addr, align 8
  br label %do.body

do.body:                                          ; preds = %entry
  %mutex_2 = getelementptr inbounds %"class.node::MutexBase", ptr %this1, i32 0, i32 0
  %call = call noundef i32 @_ZN4node16LibuvMutexTraits10mutex_initEP15pthread_mutex_t(ptr noundef %mutex_2)
  %cmp = icmp eq i32 0, %call
  %lnot = xor i1 %cmp, true
  %lnot3 = xor i1 %lnot, true
  %lnot4 = xor i1 %lnot3, true
  br i1 %lnot4, label %if.then, label %if.end

if.then:                                          ; preds = %do.body
  br label %do.body5

do.body5:                                         ; preds = %if.then
  call void @_ZN4node6AssertERKNS_13AssertionInfoE(ptr noundef nonnull align 8 dereferenceable(24) @_ZZN4node9MutexBaseINS_16LibuvMutexTraitsEEC1EvE4args)
  call void @abort() #10
  unreachable

do.end:                                           ; No predecessors!
  br label %if.end

if.end:                                           ; preds = %do.end, %do.body
  br label %do.end6

do.end6:                                          ; preds = %if.end
  ret void
}

; Function Attrs: mustprogress nounwind uwtable
define linkonce_odr dso_local void @_ZN4node4quic3CID7FactoryC2Ev(ptr noundef nonnull align 8 dereferenceable(8) %this) unnamed_addr #4 comdat align 2 {
entry:
  %this.addr = alloca ptr, align 8
  store ptr %this, ptr %this.addr, align 8
  %this1 = load ptr, ptr %this.addr, align 8
  store ptr getelementptr inbounds ({ [6 x ptr] }, ptr @_ZTVN4node4quic3CID7FactoryE, i32 0, i32 0, i32 2), ptr %this1, align 8
  ret void
}

; Function Attrs: mustprogress nounwind uwtable
define internal void @_ZN4node4quic12_GLOBAL__N_116RandomCIDFactoryC2Ev(ptr noundef nonnull align 8 dereferenceable(4152) %this) unnamed_addr #4 align 2 {
entry:
  %this.addr = alloca ptr, align 8
  store ptr %this, ptr %this.addr, align 8
  %this1 = load ptr, ptr %this.addr, align 8
  call void @_ZN4node4quic3CID7FactoryC2Ev(ptr noundef nonnull align 8 dereferenceable(8) %this1) #3
  store ptr getelementptr inbounds ({ [6 x ptr] }, ptr @_ZTVN4node4quic12_GLOBAL__N_116RandomCIDFactoryE, i32 0, i32 0, i32 2), ptr %this1, align 8
  %pos_ = getelementptr inbounds %"class.node::quic::(anonymous namespace)::RandomCIDFactory", ptr %this1, i32 0, i32 1
  store i32 4096, ptr %pos_, align 8
  %mutex_ = getelementptr inbounds %"class.node::quic::(anonymous namespace)::RandomCIDFactory", ptr %this1, i32 0, i32 3
  call void @_ZN4node9MutexBaseINS_16LibuvMutexTraitsEEC2Ev(ptr noundef nonnull align 8 dereferenceable(40) %mutex_)
  ret void
}