; Function Attrs: mustprogress nounwind uwtable
define internal fastcc void @_ZN4node4quic12_GLOBAL__N_116RandomCIDFactoryC2Ev() unnamed_addr #4 align 2 {
entry:
  store ptr getelementptr inbounds ({ [6 x ptr] }, ptr @_ZTVN4node4quic12_GLOBAL__N_116RandomCIDFactoryE, i64 0, i32 0, i64 2), ptr @_ZZN4node4quic3CID7Factory6randomEvE8instance, align 8
  store i32 4096, ptr getelementptr inbounds (%"class.node::quic::(anonymous namespace)::RandomCIDFactory", ptr @_ZZN4node4quic3CID7Factory6randomEvE8instance, i64 0, i32 1), align 8
  %call.i.i = tail call noundef i32 @uv_mutex_init(ptr noundef nonnull getelementptr inbounds (%"class.node::quic::(anonymous namespace)::RandomCIDFactory", ptr @_ZZN4node4quic3CID7Factory6randomEvE8instance, i64 0, i32 3)) #12
  %cmp.not.i = icmp eq i32 %call.i.i, 0
  br i1 %cmp.not.i, label %_ZN4node9MutexBaseINS_16LibuvMutexTraitsEEC2Ev.exit, label %do.body5.i

do.body5.i:                                       ; preds = %entry
  tail call void @_ZN4node6AssertERKNS_13AssertionInfoE(ptr noundef nonnull align 8 dereferenceable(24) @_ZZN4node9MutexBaseINS_16LibuvMutexTraitsEEC1EvE4args) #12
  tail call void @abort() #13
  unreachable

_ZN4node9MutexBaseINS_16LibuvMutexTraitsEEC2Ev.exit: ; preds = %entry
  ret void
}